target datalayout = "e-m:e-p270:32:32-p271:32:32-p272:64:64-i64:64-i128:128-f80:128-n8:16:32:64-S128"
target triple = "x86_64-pc-linux-gnu"

%struct._wmem_array_t = type { ptr, ptr, i64, i32, i32, i8 }

; Function Attrs: alwaysinline nounwind
define internal ptr @memcpy.inline(ptr noalias %0, ptr noalias %1, i64 %2) #5 {
  %4 = alloca ptr, align 8
  %5 = alloca ptr, align 8
  %6 = alloca i64, align 8
  store ptr %0, ptr %4, align 8
  store ptr %1, ptr %5, align 8
  store i64 %2, ptr %6, align 8
  %7 = load ptr, ptr %4, align 8
  %8 = load ptr, ptr %5, align 8
  %9 = load i64, ptr %6, align 8
  %10 = load ptr, ptr %4, align 8
  %11 = call i64 @llvm.objectsize.i64.p0(ptr %10, i1 false, i1 true, i1 true)
  %12 = call ptr @__memcpy_chk(ptr noundef %7, ptr noundef %8, i64 noundef %9, i64 noundef %11) #11
  ret ptr %12
}

; Function Attrs: nounwind null_pointer_is_valid sspstrong uwtable
define i32 @wmem_array_try_index(ptr noundef %0, i32 noundef %1, ptr noundef %2) #4 {
  %4 = alloca i32, align 4
  %5 = alloca ptr, align 8
  %6 = alloca i32, align 4
  %7 = alloca ptr, align 8
  store ptr %0, ptr %5, align 8
  store i32 %1, ptr %6, align 4
  store ptr %2, ptr %7, align 8
  %8 = load i32, ptr %6, align 4
  %9 = load ptr, ptr %5, align 8
  %10 = getelementptr inbounds nuw %struct._wmem_array_t, ptr %9, i32 0, i32 3
  %11 = load i32, ptr %10, align 8
  %12 = icmp uge i32 %8, %11
  br i1 %12, label %13, label %14

13:                                               ; preds = %3
  store i32 -1, ptr %4, align 4
  br label %30

14:                                               ; preds = %3
  %15 = load ptr, ptr %7, align 8
  %16 = load ptr, ptr %5, align 8
  %17 = getelementptr inbounds nuw %struct._wmem_array_t, ptr %16, i32 0, i32 1
  %18 = load ptr, ptr %17, align 8
  %19 = load i32, ptr %6, align 4
  %20 = zext i32 %19 to i64
  %21 = load ptr, ptr %5, align 8
  %22 = getelementptr inbounds nuw %struct._wmem_array_t, ptr %21, i32 0, i32 2
  %23 = load i64, ptr %22, align 8
  %24 = mul i64 %20, %23
  %25 = getelementptr i8, ptr %18, i64 %24
  %26 = load ptr, ptr %5, align 8
  %27 = getelementptr inbounds nuw %struct._wmem_array_t, ptr %26, i32 0, i32 2
  %28 = load i64, ptr %27, align 8
  %29 = call ptr @memcpy.inline(ptr noundef %15, ptr noundef %25, i64 noundef %28) #11
  store i32 0, ptr %4, align 4
  br label %30

30:                                               ; preds = %14, %13
  %31 = load i32, ptr %4, align 4
  ret i32 %31
}