; Function Attrs: nofree nounwind null_pointer_is_valid sspstrong memory(readwrite, inaccessiblemem: none) uwtable
define range(i32 -1, 1) i32 @wmem_array_try_index(ptr noundef readonly captures(none) %0, i32 noundef %1, ptr noundef %2) local_unnamed_addr #3 {
  %4 = getelementptr inbounds nuw i8, ptr %0, i64 24
  %5 = load i32, ptr %4, align 8
  %.not = icmp ult i32 %1, %5
  br i1 %.not, label %6, label %14

6:                                                ; preds = %3
  %7 = getelementptr inbounds nuw i8, ptr %0, i64 8
  %8 = load ptr, ptr %7, align 8
  %9 = zext i32 %1 to i64
  %10 = getelementptr inbounds nuw i8, ptr %0, i64 16
  %11 = load i64, ptr %10, align 8
  %12 = mul i64 %11, %9
  %13 = getelementptr i8, ptr %8, i64 %12
  tail call void @llvm.memcpy.p0.p0.i64(ptr noundef align 1 %2, ptr noundef align 1 %13, i64 noundef %11, i1 noundef false) #14
  br label %14

14:                                               ; preds = %3, %6
  %.0 = phi i32 [ 0, %6 ], [ -1, %3 ]
  ret i32 %.0
}